; Function Attrs: mustprogress nofree norecurse nosync nounwind willreturn memory(argmem: write) uwtable
define hidden void @_ZN10smt_params14setup_QF_UFLIAEv(ptr nocapture noundef nonnull writeonly align 8 dereferenceable(800) %this) local_unnamed_addr #6 align 2 {
entry:
  %m_relevancy_lvl = getelementptr inbounds i8, ptr %this, i64 512
  store i32 0, ptr %m_relevancy_lvl, align 8
  %m_arith_reflect = getelementptr inbounds i8, ptr %this, i64 284
  store i8 0, ptr %m_arith_reflect, align 4
  %m_nnf_cnf = getelementptr inbounds i8, ptr %this, i64 58
  store i8 0, ptr %m_nnf_cnf, align 2
  %m_arith_propagation_threshold = getelementptr inbounds i8, ptr %this, i64 344
  store i32 1000, ptr %m_arith_propagation_threshold, align 8
  ret void
}